; Function Attrs: nounwind sspstrong uwtable
define dso_local void @onig_region_free(ptr noundef %0, i32 noundef %1) local_unnamed_addr #0 {
  %.not = icmp eq ptr %0, null
  br i1 %.not, label %14, label %3

3:                                                ; preds = %2
  %4 = load i32, ptr %0, align 8, !tbaa !27
  %5 = icmp sgt i32 %4, 0
  br i1 %5, label %6, label %11

6:                                                ; preds = %3
  %7 = getelementptr inbounds nuw i8, ptr %0, i64 8
  %8 = load ptr, ptr %7, align 8, !tbaa !24
  tail call void @free(ptr noundef %8) #21
  %9 = getelementptr inbounds nuw i8, ptr %0, i64 16
  %10 = load ptr, ptr %9, align 8, !tbaa !23
  tail call void @free(ptr noundef %10) #21
  br label %11

11:                                               ; preds = %6, %3
  %.not6 = icmp eq i32 %1, 0
  br i1 %.not6, label %13, label %12

12:                                               ; preds = %11
  tail call void @free(ptr noundef nonnull %0) #21
  br label %14

13:                                               ; preds = %11
  tail call void @llvm.memset.p0.i64(ptr noundef nonnull align 1 dereferenceable(24) %0, i8 noundef 0, i64 noundef 24, i1 noundef false) #21
  br label %14

14:                                               ; preds = %12, %13, %2
  ret void
}